; Function Attrs: nounwind uwtable
define void @Gia_ManReprToAigRepr2(ptr noundef %0, ptr noundef readonly captures(none) %1) local_unnamed_addr #0 {
  %3 = getelementptr i8, ptr %0, i64 32
  %.val16 = load ptr, ptr %3, align 8, !tbaa !46
  %4 = getelementptr i8, ptr %.val16, i64 4
  %.val16.val = load i32, ptr %4, align 4, !tbaa !48
  tail call void @Aig_ManReprStart(ptr noundef %0, i32 noundef %.val16.val) #17
  %5 = getelementptr i8, ptr %1, i64 32
  %6 = getelementptr inbounds nuw i8, ptr %1, i64 24
  %7 = load i32, ptr %6, align 8, !tbaa !73
  %8 = icmp sgt i32 %7, 0
  br i1 %8, label %.lr.ph, label %.critedge

.lr.ph:                                           ; preds = %2
  %9 = getelementptr inbounds nuw i8, ptr %1, i64 192
  br label %10

10:                                               ; preds = %.lr.ph, %Gia_ObjReprObj.exit.thread
  %11 = phi i32 [ %7, %.lr.ph ], [ %35, %Gia_ObjReprObj.exit.thread ]
  %indvars.iv = phi i64 [ 0, %.lr.ph ], [ %indvars.iv.next, %Gia_ObjReprObj.exit.thread ]
  %.val = load ptr, ptr %5, align 8, !tbaa !41
  %.not = icmp eq ptr %.val, null
  br i1 %.not, label %.critedge, label %12

12:                                               ; preds = %10
  %13 = load ptr, ptr %9, align 8, !tbaa !94
  %14 = getelementptr inbounds nuw %struct.Gia_Rpr_t_, ptr %13, i64 %indvars.iv
  %15 = load i32, ptr %14, align 4
  %16 = and i32 %15, 268435455
  %17 = icmp eq i32 %16, 268435455
  br i1 %17, label %Gia_ObjReprObj.exit.thread, label %Gia_ObjReprObj.exit

Gia_ObjReprObj.exit:                              ; preds = %12
  %.val18 = load ptr, ptr %3, align 8, !tbaa !46
  %.not.i = icmp eq ptr %.val18, null
  br i1 %.not.i, label %Aig_ManObj.exit22, label %18

18:                                               ; preds = %Gia_ObjReprObj.exit
  %19 = zext nneg i32 %16 to i64
  %20 = getelementptr inbounds nuw %struct.Gia_Obj_t_, ptr %.val, i64 %19, i32 1
  %21 = load i32, ptr %20, align 4, !tbaa !90
  %22 = ashr i32 %21, 1
  %23 = getelementptr i8, ptr %.val18, i64 8
  %.val.i19 = load ptr, ptr %23, align 8, !tbaa !59
  %24 = sext i32 %22 to i64
  %25 = getelementptr inbounds ptr, ptr %.val.i19, i64 %24
  %26 = load ptr, ptr %25, align 8, !tbaa !60
  %27 = getelementptr inbounds nuw %struct.Gia_Obj_t_, ptr %.val, i64 %indvars.iv, i32 1
  %28 = load i32, ptr %27, align 4, !tbaa !90
  %29 = ashr i32 %28, 1
  %30 = sext i32 %29 to i64
  %31 = getelementptr inbounds ptr, ptr %.val.i19, i64 %30
  %32 = load ptr, ptr %31, align 8, !tbaa !60
  br label %Aig_ManObj.exit22

Aig_ManObj.exit22:                                ; preds = %Gia_ObjReprObj.exit, %18
  %33 = phi ptr [ %26, %18 ], [ null, %Gia_ObjReprObj.exit ]
  %34 = phi ptr [ %32, %18 ], [ null, %Gia_ObjReprObj.exit ]
  tail call void @Aig_ObjCreateRepr(ptr noundef nonnull %0, ptr noundef %33, ptr noundef %34) #17
  %.pre = load i32, ptr %6, align 8, !tbaa !73
  br label %Gia_ObjReprObj.exit.thread

Gia_ObjReprObj.exit.thread:                       ; preds = %12, %Aig_ManObj.exit22
  %35 = phi i32 [ %11, %12 ], [ %.pre, %Aig_ManObj.exit22 ]
  %indvars.iv.next = add nuw nsw i64 %indvars.iv, 1
  %36 = sext i32 %35 to i64
  %37 = icmp slt i64 %indvars.iv.next, %36
  br i1 %37, label %10, label %.critedge, !llvm.loop !96

.critedge:                                        ; preds = %10, %Gia_ObjReprObj.exit.thread, %2
  ret void
}